; Function Attrs: nounwind uwtable
define range(i32 -1, 1) i32 @H5D__layout_idx_type_test(i64 noundef %0, ptr noundef writeonly %1) local_unnamed_addr #0 {
  %3 = tail call ptr @H5VL_object_verify(i64 noundef %0, i32 noundef 5) #2
  %4 = icmp eq ptr %3, null
  br i1 %4, label %5, label %9

5:                                                ; preds = %2
  %6 = load i64, ptr @H5E_ARGS_g, align 8
  %7 = load i64, ptr @H5E_BADTYPE_g, align 8
  %8 = tail call i32 (ptr, ptr, i32, i64, i64, ptr, ...) @H5E_printf_stack(ptr noundef nonnull @.str, ptr noundef nonnull @__func__.H5D__layout_idx_type_test, i32 noundef 240, i64 noundef %6, i64 noundef %7, ptr noundef nonnull @.str.1) #2
  br label %22

9:                                                ; preds = %2
  %10 = getelementptr inbounds i8, ptr %3, i64 48
  %11 = load ptr, ptr %10, align 8
  %12 = getelementptr inbounds i8, ptr %11, i64 248
  %13 = load i32, ptr %12, align 8
  %.not = icmp eq i32 %13, 2
  br i1 %.not, label %18, label %14

14:                                               ; preds = %9
  %15 = load i64, ptr @H5E_ARGS_g, align 8
  %16 = load i64, ptr @H5E_BADTYPE_g, align 8
  %17 = tail call i32 (ptr, ptr, i32, i64, i64, ptr, ...) @H5E_printf_stack(ptr noundef nonnull @.str, ptr noundef nonnull @__func__.H5D__layout_idx_type_test, i32 noundef 242, i64 noundef %15, i64 noundef %16, ptr noundef nonnull @.str.2) #2
  br label %22

18:                                               ; preds = %9
  %.not9 = icmp eq ptr %1, null
  br i1 %.not9, label %22, label %19

19:                                               ; preds = %18
  %20 = getelementptr inbounds i8, ptr %11, i64 264
  %21 = load i32, ptr %20, align 8
  store i32 %21, ptr %1, align 4
  br label %22

22:                                               ; preds = %18, %19, %14, %5
  %.0 = phi i32 [ -1, %5 ], [ -1, %14 ], [ 0, %19 ], [ 0, %18 ]
  ret i32 %.0
}